target datalayout = "e-m:e-p270:32:32-p271:32:32-p272:64:64-i64:64-i128:128-f80:128-n8:16:32:64-S128"
target triple = "x86_64-pc-linux-gnu"

@.str = private unnamed_addr constant [11 x i8] c"H5S_SCALAR\00", align 1
@.str.1 = private unnamed_addr constant [18 x i8] c"dimension is NULL\00", align 1
@.str.2 = private unnamed_addr constant [2 x i8] c"[\00", align 1
@.str.3 = private unnamed_addr constant [4 x i8] c"%lu\00", align 1
@.str.4 = private unnamed_addr constant [2 x i8] c"x\00", align 1
@.str.5 = private unnamed_addr constant [2 x i8] c"]\00", align 1

; Function Attrs: nounwind uwtable
define void @print_dimensions(i32 noundef %0, ptr noundef %1) #0 {
  %3 = alloca i32, align 4
  %4 = alloca ptr, align 8
  %5 = alloca i32, align 4
  store i32 %0, ptr %3, align 4, !tbaa !3
  store ptr %1, ptr %4, align 8, !tbaa !7
  call void @llvm.lifetime.start.p0(i64 4, ptr %5) #7
  %6 = load i32, ptr %3, align 4, !tbaa !3
  %7 = icmp sle i32 %6, 0
  br i1 %7, label %8, label %9

8:                                                ; preds = %2
  call void (ptr, ...) @parallel_print(ptr noundef @.str)
  br label %36

9:                                                ; preds = %2
  %10 = load ptr, ptr %4, align 8, !tbaa !7
  %11 = icmp ne ptr %10, null
  br i1 %11, label %13, label %12

12:                                               ; preds = %9
  call void (ptr, ...) @parallel_print(ptr noundef @.str.1)
  br label %35

13:                                               ; preds = %9
  call void (ptr, ...) @parallel_print(ptr noundef @.str.2)
  store i32 0, ptr %5, align 4, !tbaa !3
  br label %14

14:                                               ; preds = %25, %13
  %15 = load i32, ptr %5, align 4, !tbaa !3
  %16 = load i32, ptr %3, align 4, !tbaa !3
  %17 = sub nsw i32 %16, 1
  %18 = icmp slt i32 %15, %17
  br i1 %18, label %19, label %28

19:                                               ; preds = %14
  %20 = load ptr, ptr %4, align 8, !tbaa !7
  %21 = load i32, ptr %5, align 4, !tbaa !3
  %22 = sext i32 %21 to i64
  %23 = getelementptr inbounds i64, ptr %20, i64 %22
  %24 = load i64, ptr %23, align 8, !tbaa !10
  call void (ptr, ...) @parallel_print(ptr noundef @.str.3, i64 noundef %24)
  call void (ptr, ...) @parallel_print(ptr noundef @.str.4)
  br label %25

25:                                               ; preds = %19
  %26 = load i32, ptr %5, align 4, !tbaa !3
  %27 = add nsw i32 %26, 1
  store i32 %27, ptr %5, align 4, !tbaa !3
  br label %14, !llvm.loop !12

28:                                               ; preds = %14
  %29 = load ptr, ptr %4, align 8, !tbaa !7
  %30 = load i32, ptr %3, align 4, !tbaa !3
  %31 = sub nsw i32 %30, 1
  %32 = sext i32 %31 to i64
  %33 = getelementptr inbounds i64, ptr %29, i64 %32
  %34 = load i64, ptr %33, align 8, !tbaa !10
  call void (ptr, ...) @parallel_print(ptr noundef @.str.3, i64 noundef %34)
  call void (ptr, ...) @parallel_print(ptr noundef @.str.5)
  br label %35

35:                                               ; preds = %28, %12
  br label %36

36:                                               ; preds = %35, %8
  call void @llvm.lifetime.end.p0(i64 4, ptr %5) #7
  ret void
}