; Function Attrs: nounwind uwtable
define void @print_dimensions(i32 noundef %0, ptr noundef readonly captures(address_is_null) %1) local_unnamed_addr #0 {
  %3 = icmp slt i32 %0, 1
  br i1 %3, label %11, label %4

4:                                                ; preds = %2
  %.not = icmp eq ptr %1, null
  br i1 %.not, label %11, label %5

5:                                                ; preds = %4
  tail call void (ptr, ...) @parallel_print(ptr noundef nonnull @.str.2) #7
  %.not12 = icmp eq i32 %0, 1
  br i1 %.not12, label %._crit_edge, label %.lr.ph.preheader

.lr.ph.preheader:                                 ; preds = %5
  %6 = add nsw i32 %0, -1
  %wide.trip.count = zext nneg i32 %6 to i64
  br label %.lr.ph

.lr.ph:                                           ; preds = %.lr.ph.preheader, %.lr.ph
  %indvars.iv = phi i64 [ 0, %.lr.ph.preheader ], [ %indvars.iv.next, %.lr.ph ]
  %7 = getelementptr inbounds nuw i64, ptr %1, i64 %indvars.iv
  %8 = load i64, ptr %7, align 8, !tbaa !3
  tail call void (ptr, ...) @parallel_print(ptr noundef nonnull @.str.3, i64 noundef %8) #7
  tail call void (ptr, ...) @parallel_print(ptr noundef nonnull @.str.4) #7
  %indvars.iv.next = add nuw nsw i64 %indvars.iv, 1
  %exitcond.not = icmp eq i64 %indvars.iv.next, %wide.trip.count
  br i1 %exitcond.not, label %._crit_edge, label %.lr.ph, !llvm.loop !7

._crit_edge:                                      ; preds = %.lr.ph, %5
  %.pre-phi = phi i64 [ 0, %5 ], [ %wide.trip.count, %.lr.ph ]
  %9 = getelementptr inbounds nuw i64, ptr %1, i64 %.pre-phi
  %10 = load i64, ptr %9, align 8, !tbaa !3
  tail call void (ptr, ...) @parallel_print(ptr noundef nonnull @.str.3, i64 noundef %10) #7
  br label %11

11:                                               ; preds = %4, %2, %._crit_edge
  %.str.1.sink = phi ptr [ @.str.5, %._crit_edge ], [ @.str, %2 ], [ @.str.1, %4 ]
  tail call void (ptr, ...) @parallel_print(ptr noundef nonnull %.str.1.sink) #7
  ret void
}